#include <math.h>
#include <stdio.h>
#include <stdlib.h>
#include <string.h>

int main()
{
      int t,l,m,n,j,no;
      char i;
      scanf("%d\n",&t);
      for(l=0;l<t;l++)
      {
                      no=0;
                      char a[100000];
                      int b[26]={0};
                      scanf("%s",&a);
                      n=strlen(a);
                      for(i='a';i<='z';i++)
                      {
                           for(j=0;a[j]!='\0';j++)
                           {
                                                  m=i-'a';
                                                  if(i==a[j])b[m]=b[m]+1;
                           }
                      }
                      for(j=0;j<26;j++)
                      {
                         if(b[j]==1)
                         {
                                  i='a'+j;no=1;
                                  for(m=0;a[m]!='\0';m++)
                                  {
                                                         if(a[m]==i&&n>m)n=m;
                                  }
                          }
                      }
                      if(no==1)printf("%c\n",a[n]);
                      else printf("no\n");
      }
      return 0;
      
}