; ModuleID = '37/1718.c'
source_filename = "37/1718.c"
target datalayout = "e-m:e-p270:32:32-p271:32:32-p272:64:64-i64:64-f80:128-n8:16:32:64-S128"
target triple = "x86_64-pc-linux-gnu"

@.str = private unnamed_addr constant [4 x i8] c"%d\0A\00", align 1
@.str.1 = private unnamed_addr constant [3 x i8] c"%s\00", align 1
@.str.2 = private unnamed_addr constant [4 x i8] c"%c\0A\00", align 1
@.str.3 = private unnamed_addr constant [4 x i8] c"no\0A\00", align 1

; Function Attrs: noinline nounwind uwtable
define dso_local i32 @main() #0 {
  %1 = alloca i32, align 4
  %2 = alloca i32, align 4
  %3 = alloca i32, align 4
  %4 = alloca i32, align 4
  %5 = alloca i32, align 4
  %6 = alloca i32, align 4
  %7 = alloca i32, align 4
  %8 = alloca i8, align 1
  %9 = alloca [100000 x i8], align 16
  %10 = alloca [26 x i32], align 16
  store i32 0, i32* %1, align 4
  %11 = call i32 (i8*, ...) @__isoc99_scanf(i8* getelementptr inbounds ([4 x i8], [4 x i8]* @.str, i64 0, i64 0), i32* %2)
  store i32 0, i32* %3, align 4
  br label %12

12:                                               ; preds = %121, %0
  %13 = load i32, i32* %3, align 4
  %14 = load i32, i32* %2, align 4
  %15 = icmp slt i32 %13, %14
  br i1 %15, label %16, label %124

16:                                               ; preds = %12
  store i32 0, i32* %7, align 4
  %17 = bitcast [26 x i32]* %10 to i8*
  call void @llvm.memset.p0i8.i64(i8* align 16 %17, i8 0, i64 104, i1 false)
  %18 = call i32 (i8*, ...) @__isoc99_scanf(i8* getelementptr inbounds ([3 x i8], [3 x i8]* @.str.1, i64 0, i64 0), [100000 x i8]* %9)
  %19 = getelementptr inbounds [100000 x i8], [100000 x i8]* %9, i64 0, i64 0
  %20 = call i64 @strlen(i8* %19) #4
  %21 = trunc i64 %20 to i32
  store i32 %21, i32* %5, align 4
  store i8 97, i8* %8, align 1
  br label %22

22:                                               ; preds = %60, %16
  %23 = load i8, i8* %8, align 1
  %24 = sext i8 %23 to i32
  %25 = icmp sle i32 %24, 122
  br i1 %25, label %26, label %63

26:                                               ; preds = %22
  store i32 0, i32* %6, align 4
  br label %27

27:                                               ; preds = %56, %26
  %28 = load i32, i32* %6, align 4
  %29 = sext i32 %28 to i64
  %30 = getelementptr inbounds [100000 x i8], [100000 x i8]* %9, i64 0, i64 %29
  %31 = load i8, i8* %30, align 1
  %32 = sext i8 %31 to i32
  %33 = icmp ne i32 %32, 0
  br i1 %33, label %34, label %59

34:                                               ; preds = %27
  %35 = load i8, i8* %8, align 1
  %36 = sext i8 %35 to i32
  %37 = sub nsw i32 %36, 97
  store i32 %37, i32* %4, align 4
  %38 = load i8, i8* %8, align 1
  %39 = sext i8 %38 to i32
  %40 = load i32, i32* %6, align 4
  %41 = sext i32 %40 to i64
  %42 = getelementptr inbounds [100000 x i8], [100000 x i8]* %9, i64 0, i64 %41
  %43 = load i8, i8* %42, align 1
  %44 = sext i8 %43 to i32
  %45 = icmp eq i32 %39, %44
  br i1 %45, label %46, label %55

46:                                               ; preds = %34
  %47 = load i32, i32* %4, align 4
  %48 = sext i32 %47 to i64
  %49 = getelementptr inbounds [26 x i32], [26 x i32]* %10, i64 0, i64 %48
  %50 = load i32, i32* %49, align 4
  %51 = add nsw i32 %50, 1
  %52 = load i32, i32* %4, align 4
  %53 = sext i32 %52 to i64
  %54 = getelementptr inbounds [26 x i32], [26 x i32]* %10, i64 0, i64 %53
  store i32 %51, i32* %54, align 4
  br label %55

55:                                               ; preds = %46, %34
  br label %56

56:                                               ; preds = %55
  %57 = load i32, i32* %6, align 4
  %58 = add nsw i32 %57, 1
  store i32 %58, i32* %6, align 4
  br label %27

59:                                               ; preds = %27
  br label %60

60:                                               ; preds = %59
  %61 = load i8, i8* %8, align 1
  %62 = add i8 %61, 1
  store i8 %62, i8* %8, align 1
  br label %22

63:                                               ; preds = %22
  store i32 0, i32* %6, align 4
  br label %64

64:                                               ; preds = %105, %63
  %65 = load i32, i32* %6, align 4
  %66 = icmp slt i32 %65, 26
  br i1 %66, label %67, label %108

67:                                               ; preds = %64
  %68 = load i32, i32* %6, align 4
  %69 = sext i32 %68 to i64
  %70 = getelementptr inbounds [26 x i32], [26 x i32]* %10, i64 0, i64 %69
  %71 = load i32, i32* %70, align 4
  %72 = icmp eq i32 %71, 1
  br i1 %72, label %73, label %104

73:                                               ; preds = %67
  %74 = load i32, i32* %6, align 4
  %75 = add nsw i32 97, %74
  %76 = trunc i32 %75 to i8
  store i8 %76, i8* %8, align 1
  store i32 1, i32* %7, align 4
  store i32 0, i32* %4, align 4
  br label %77

77:                                               ; preds = %100, %73
  %78 = load i32, i32* %4, align 4
  %79 = sext i32 %78 to i64
  %80 = getelementptr inbounds [100000 x i8], [100000 x i8]* %9, i64 0, i64 %79
  %81 = load i8, i8* %80, align 1
  %82 = sext i8 %81 to i32
  %83 = icmp ne i32 %82, 0
  br i1 %83, label %84, label %103

84:                                               ; preds = %77
  %85 = load i32, i32* %4, align 4
  %86 = sext i32 %85 to i64
  %87 = getelementptr inbounds [100000 x i8], [100000 x i8]* %9, i64 0, i64 %86
  %88 = load i8, i8* %87, align 1
  %89 = sext i8 %88 to i32
  %90 = load i8, i8* %8, align 1
  %91 = sext i8 %90 to i32
  %92 = icmp eq i32 %89, %91
  br i1 %92, label %93, label %99

93:                                               ; preds = %84
  %94 = load i32, i32* %5, align 4
  %95 = load i32, i32* %4, align 4
  %96 = icmp sgt i32 %94, %95
  br i1 %96, label %97, label %99

97:                                               ; preds = %93
  %98 = load i32, i32* %4, align 4
  store i32 %98, i32* %5, align 4
  br label %99

99:                                               ; preds = %97, %93, %84
  br label %100

100:                                              ; preds = %99
  %101 = load i32, i32* %4, align 4
  %102 = add nsw i32 %101, 1
  store i32 %102, i32* %4, align 4
  br label %77

103:                                              ; preds = %77
  br label %104

104:                                              ; preds = %103, %67
  br label %105

105:                                              ; preds = %104
  %106 = load i32, i32* %6, align 4
  %107 = add nsw i32 %106, 1
  store i32 %107, i32* %6, align 4
  br label %64

108:                                              ; preds = %64
  %109 = load i32, i32* %7, align 4
  %110 = icmp eq i32 %109, 1
  br i1 %110, label %111, label %118

111:                                              ; preds = %108
  %112 = load i32, i32* %5, align 4
  %113 = sext i32 %112 to i64
  %114 = getelementptr inbounds [100000 x i8], [100000 x i8]* %9, i64 0, i64 %113
  %115 = load i8, i8* %114, align 1
  %116 = sext i8 %115 to i32
  %117 = call i32 (i8*, ...) @printf(i8* getelementptr inbounds ([4 x i8], [4 x i8]* @.str.2, i64 0, i64 0), i32 %116)
  br label %120

118:                                              ; preds = %108
  %119 = call i32 (i8*, ...) @printf(i8* getelementptr inbounds ([4 x i8], [4 x i8]* @.str.3, i64 0, i64 0))
  br label %120

120:                                              ; preds = %118, %111
  br label %121

121:                                              ; preds = %120
  %122 = load i32, i32* %3, align 4
  %123 = add nsw i32 %122, 1
  store i32 %123, i32* %3, align 4
  br label %12

124:                                              ; preds = %12
  ret i32 0
}

declare dso_local i32 @__isoc99_scanf(i8*, ...) #1

; Function Attrs: argmemonly nounwind willreturn
declare void @llvm.memset.p0i8.i64(i8* nocapture writeonly, i8, i64, i1 immarg) #2

; Function Attrs: nounwind readonly
declare dso_local i64 @strlen(i8*) #3

declare dso_local i32 @printf(i8*, ...) #1


!llvm.module.flags = !{!0}
!llvm.ident = !{!1}

!0 = !{i32 1, !"wchar_size", i32 4}
!1 = !{!"clang version 10.0.0-4ubuntu1 "}
